target datalayout = "e-m:e-p270:32:32-p271:32:32-p272:64:64-i64:64-i128:128-f80:128-n8:16:32:64-S128"
target triple = "x86_64-pc-linux-gnu"

%struct.PgStat_PendingIO = type { [3 x [5 x [8 x i64]]], [3 x [5 x [8 x i64]]], [3 x [5 x [8 x %struct.instr_time]]] }
%struct.instr_time = type { i64 }

@PendingIOStats = internal global %struct.PgStat_PendingIO zeroinitializer, align 8
@have_iostats = internal global i8 0, align 1

; Function Attrs: nounwind uwtable
define dso_local void @pgstat_count_io_op(i32 noundef %0, i32 noundef %1, i32 noundef %2, i32 noundef %3, i64 noundef %4) #0 {
  %6 = alloca i32, align 4
  %7 = alloca i32, align 4
  %8 = alloca i32, align 4
  %9 = alloca i32, align 4
  %10 = alloca i64, align 8
  store i32 %0, ptr %6, align 4
  store i32 %1, ptr %7, align 4
  store i32 %2, ptr %8, align 4
  store i32 %3, ptr %9, align 4
  store i64 %4, ptr %10, align 8
  %11 = load i32, ptr %9, align 4
  %12 = zext i32 %11 to i64
  %13 = load i32, ptr %6, align 4
  %14 = zext i32 %13 to i64
  %15 = getelementptr inbounds nuw [3 x [5 x [8 x i64]]], ptr getelementptr inbounds nuw (%struct.PgStat_PendingIO, ptr @PendingIOStats, i32 0, i32 1), i64 0, i64 %14
  %16 = load i32, ptr %7, align 4
  %17 = zext i32 %16 to i64
  %18 = getelementptr inbounds nuw [5 x [8 x i64]], ptr %15, i64 0, i64 %17
  %19 = load i32, ptr %8, align 4
  %20 = zext i32 %19 to i64
  %21 = getelementptr inbounds nuw [8 x i64], ptr %18, i64 0, i64 %20
  %22 = load i64, ptr %21, align 8
  %23 = add i64 %22, %12
  store i64 %23, ptr %21, align 8
  %24 = load i64, ptr %10, align 8
  %25 = load i32, ptr %6, align 4
  %26 = zext i32 %25 to i64
  %27 = getelementptr inbounds nuw [3 x [5 x [8 x i64]]], ptr @PendingIOStats, i64 0, i64 %26
  %28 = load i32, ptr %7, align 4
  %29 = zext i32 %28 to i64
  %30 = getelementptr inbounds nuw [5 x [8 x i64]], ptr %27, i64 0, i64 %29
  %31 = load i32, ptr %8, align 4
  %32 = zext i32 %31 to i64
  %33 = getelementptr inbounds nuw [8 x i64], ptr %30, i64 0, i64 %32
  %34 = load i64, ptr %33, align 8
  %35 = add i64 %34, %24
  store i64 %35, ptr %33, align 8
  %36 = load i32, ptr %6, align 4
  %37 = load i32, ptr %7, align 4
  %38 = load i32, ptr %8, align 4
  %39 = load i32, ptr %9, align 4
  %40 = load i64, ptr %10, align 8
  call void @pgstat_count_backend_io_op(i32 noundef %36, i32 noundef %37, i32 noundef %38, i32 noundef %39, i64 noundef %40)
  store i8 1, ptr @have_iostats, align 1
  ret void
}