; Function Attrs: nounwind uwtable
define dso_local void @pgstat_count_io_op(i32 noundef %0, i32 noundef %1, i32 noundef %2, i32 noundef %3, i64 noundef %4) local_unnamed_addr #3 {
  %6 = zext i32 %3 to i64
  %7 = zext i32 %0 to i64
  %8 = zext i32 %1 to i64
  %9 = zext i32 %2 to i64
  %10 = getelementptr inbounds nuw [3 x [5 x [8 x i64]]], ptr getelementptr inbounds nuw (i8, ptr @PendingIOStats, i64 960), i64 0, i64 %7, i64 %8, i64 %9
  %11 = load i64, ptr %10, align 8
  %12 = add i64 %11, %6
  store i64 %12, ptr %10, align 8
  %13 = getelementptr inbounds nuw [3 x [5 x [8 x i64]]], ptr @PendingIOStats, i64 0, i64 %7, i64 %8, i64 %9
  %14 = load i64, ptr %13, align 8
  %15 = add i64 %14, %4
  store i64 %15, ptr %13, align 8
  tail call void @pgstat_count_backend_io_op(i32 noundef %0, i32 noundef %1, i32 noundef %2, i32 noundef %3, i64 noundef %4) #11
  store i1 true, ptr @have_iostats, align 1
  ret void
}